(lp1
(lp2
I16
aI0
aI0
aI0
aa(lp3
I0
aI0
aI0
aI0
aa(lp4
I0
aI0
aI0
aI0
aa(lp5
I3
aI0
aI0
aI0
aa(lp6
I5
aI0
aI0
aI0
aa(lp7
I4
aI0
aI0
aI0
aa(lp8
I0
aI0
aI0
aI0
aa(lp9
I0
aI0
aI0
aI0
aa(lp10
I0
aI0
aI0
aI0
aa(lp11
I0
aI0
aI0
aI0
aa(lp12
I23
aI0
aI0
aI0
aa(lp13
I14
aI0
aI0
aI0
aa(lp14
I5
aI0
aI0
aI0
aa(lp15
I3
aI0
aI0
aI0
aa(lp16
I56
aI0
aI0
aI0
aa(lp17
I18
aI0
aI0
aI0
aa(lp18
I5
aI0
aI0
aI0
aa(lp19
I10
aI0
aI0
aI0
aa(lp20
I6
aI0
aI0
aI0
aa(lp21
I4
aI0
aI0
aI0
aa(lp22
I28
aI0
aI0
aI0
aa(lp23
I15
aI0
aI0
aI0
aa(lp24
I4
aI0
aI0
aI0
aa(lp25
I6
aI0
aI0
aI0
aa(lp26
I23
aI0
aI0
aI0
aa(lp27
I5
aI0
aI0
aI0
aa(lp28
I19
aI0
aI0
aI0
aa(lp29
I8
aI0
aI0
aI0
aa(lp30
I8
aI0
aI0
aI0
aa(lp31
I2
aI0
aI0
aI0
aa(lp32
I7
aI0
aI0
aI0
aa(lp33
I10
aI0
aI0
aI0
aa(lp34
I25
aI0
aI0
aI0
aa(lp35
I0
aI0
aI0
aI0
aa(lp36
I0
aI0
aI0
aI0
aa(lp37
I25
aI0
aI0
aI0
aa(lp38
I9
aI0
aI0
aI0
aa(lp39
I0
aI0
aI0
aI0
aa(lp40
I0
aI0
aI0
aI0
aa(lp41
I0
aI0
aI0
aI0
aa(lp42
I2
aI0
aI0
aI0
aa(lp43
I0
aI0
aI0
aI0
aa(lp44
I0
aI0
aI0
aI0
aa(lp45
I5
aI0
aI0
aI0
aa(lp46
I15
aI0
aI0
aI0
aa(lp47
I2
aI0
aI0
aI0
aa(lp48
I10
aI0
aI0
aI0
aa(lp49
I3
aI0
aI0
aI0
aa(lp50
I0
aI0
aI0
aI0
aa(lp51
I5
aI0
aI0
aI0
aa(lp52
I0
aI0
aI0
aI0
aa(lp53
I0
aI0
aI0
aI0
aa(lp54
I0
aI0
aI0
aI0
aa(lp55
I0
aI0
aI0
aI0
aa(lp56
I5
aI0
aI0
aI0
aa(lp57
I11
aI0
aI0
aI0
aa(lp58
I2
aI0
aI0
aI0
aa(lp59
I0
aI0
aI0
aI0
aa(lp60
I20
aI0
aI0
aI0
aa(lp61
I0
aI0
aI0
aI0
aa(lp62
I4
aI0
aI0
aI0
aa(lp63
I14
aI0
aI0
aI0
aa(lp64
I0
aI0
aI0
aI0
aa(lp65
I0
aI0
aI0
aI0
aa(lp66
I4
aI0
aI0
aI0
aa(lp67
I5
aI0
aI0
aI0
aa(lp68
I3
aI0
aI0
aI0
aa(lp69
I4
aI0
aI0
aI0
aa(lp70
I0
aI0
aI0
aI0
aa(lp71
I2
aI0
aI0
aI0
aa(lp72
I1
aI0
aI0
aI0
aa(lp73
I0
aI0
aI0
aI0
aa(lp74
I0
aI0
aI0
aI0
aa(lp75
I18
aI0
aI0
aI0
aa(lp76
I12
aI0
aI0
aI0
aa(lp77
I11
aI0
aI0
aI0
aa(lp78
I4
aI0
aI0
aI0
aa(lp79
I33
aI0
aI0
aI0
aa(lp80
I2
aI0
aI0
aI0
aa(lp81
I4
aI0
aI0
aI0
aa(lp82
I1
aI0
aI0
aI0
aa(lp83
I0
aI0
aI0
aI0
aa(lp84
I10
aI0
aI0
aI0
aa.