(lp1
(lp2
I21
aI0
aI0
aI0
aa(lp3
I0
aI0
aI0
aI0
aa(lp4
I0
aI0
aI0
aI0
aa(lp5
I26
aI0
aI0
aI0
aa(lp6
I0
aI0
aI0
aI0
aa(lp7
I0
aI0
aI0
aI0
aa(lp8
I0
aI0
aI0
aI0
aa(lp9
I0
aI0
aI0
aI0
aa(lp10
I0
aI0
aI0
aI0
aa(lp11
I0
aI0
aI0
aI0
aa(lp12
I0
aI0
aI0
aI0
aa(lp13
I7
aI0
aI0
aI0
aa(lp14
I0
aI0
aI0
aI0
aa(lp15
I0
aI0
aI0
aI0
aa(lp16
I0
aI0
aI0
aI0
aa(lp17
I0
aI0
aI0
aI0
aa(lp18
I10
aI0
aI0
aI0
aa(lp19
I18
aI0
aI0
aI0
aa(lp20
I0
aI0
aI0
aI0
aa(lp21
I6
aI0
aI0
aI0
aa(lp22
I8
aI0
aI0
aI0
aa(lp23
I20
aI0
aI0
aI0
aa(lp24
I0
aI0
aI0
aI0
aa(lp25
I0
aI0
aI0
aI0
aa(lp26
I0
aI0
aI0
aI0
aa(lp27
I0
aI0
aI0
aI0
aa(lp28
I0
aI0
aI0
aI0
aa(lp29
I0
aI0
aI0
aI0
aa(lp30
I0
aI0
aI0
aI0
aa(lp31
I0
aI0
aI0
aI0
aa(lp32
I7
aI0
aI0
aI0
aa(lp33
I7
aI0
aI0
aI0
aa(lp34
I0
aI0
aI0
aI0
aa(lp35
I0
aI0
aI0
aI0
aa(lp36
I0
aI0
aI0
aI0
aa(lp37
I0
aI0
aI0
aI0
aa(lp38
I0
aI0
aI0
aI0
aa(lp39
I8
aI0
aI0
aI0
aa(lp40
I0
aI0
aI0
aI0
aa(lp41
I4
aI0
aI0
aI0
aa(lp42
I0
aI0
aI0
aI0
aa(lp43
I0
aI0
aI0
aI0
aa(lp44
I25
aI0
aI0
aI0
aa(lp45
I0
aI0
aI0
aI0
aa(lp46
I7
aI0
aI0
aI0
aa(lp47
I4
aI0
aI0
aI0
aa(lp48
I0
aI0
aI0
aI0
aa(lp49
I3
aI0
aI0
aI0
aa(lp50
I20
aI0
aI0
aI0
aa(lp51
I0
aI0
aI0
aI0
aa(lp52
I0
aI0
aI0
aI0
aa(lp53
I7
aI0
aI0
aI0
aa(lp54
I7
aI0
aI0
aI0
aa(lp55
I0
aI0
aI0
aI0
aa(lp56
I0
aI0
aI0
aI0
aa(lp57
I0
aI0
aI0
aI0
aa(lp58
I0
aI0
aI0
aI0
aa(lp59
I24
aI0
aI0
aI0
aa(lp60
I0
aI0
aI0
aI0
aa(lp61
I0
aI0
aI0
aI0
aa(lp62
I0
aI0
aI0
aI0
aa(lp63
I3
aI0
aI0
aI0
aa(lp64
I0
aI0
aI0
aI0
aa(lp65
I54
aI0
aI0
aI0
aa(lp66
I0
aI0
aI0
aI0
aa(lp67
I0
aI0
aI0
aI0
aa(lp68
I34
aI0
aI0
aI0
aa(lp69
I4
aI0
aI0
aI0
aa(lp70
I26
aI0
aI0
aI0
aa(lp71
I0
aI0
aI0
aI0
aa(lp72
I8
aI0
aI0
aI0
aa(lp73
I15
aI0
aI0
aI0
aa(lp74
I0
aI0
aI0
aI0
aa(lp75
I7
aI0
aI0
aI0
aa(lp76
I0
aI0
aI0
aI0
aa(lp77
I0
aI0
aI0
aI0
aa(lp78
I35
aI0
aI0
aI0
aa(lp79
I0
aI0
aI0
aI0
aa(lp80
I17
aI0
aI0
aI0
aa(lp81
I22
aI0
aI0
aI0
aa(lp82
I0
aI0
aI0
aI0
aa(lp83
I0
aI0
aI0
aI0
aa(lp84
I0
aI0
aI0
aI0
aa(lp85
I0
aI0
aI0
aI0
aa(lp86
I0
aI0
aI0
aI0
aa(lp87
I27
aI0
aI0
aI0
aa(lp88
I7
aI0
aI0
aI0
aa(lp89
I7
aI0
aI0
aI0
aa(lp90
I0
aI0
aI0
aI0
aa(lp91
I0
aI0
aI0
aI0
aa(lp92
I0
aI0
aI0
aI0
aa(lp93
I7
aI0
aI0
aI0
aa(lp94
I0
aI0
aI0
aI0
aa(lp95
I5
aI0
aI0
aI0
aa(lp96
I25
aI0
aI0
aI0
aa(lp97
I7
aI0
aI0
aI0
aa(lp98
I23
aI0
aI0
aI0
aa(lp99
I4
aI0
aI0
aI0
aa(lp100
I0
aI0
aI0
aI0
aa(lp101
I0
aI0
aI0
aI0
aa(lp102
I0
aI0
aI0
aI0
aa(lp103
I4
aI0
aI0
aI0
aa(lp104
I24
aI0
aI0
aI0
aa(lp105
I5
aI0
aI0
aI0
aa(lp106
I0
aI0
aI0
aI0
aa(lp107
I0
aI0
aI0
aI0
aa(lp108
I0
aI0
aI0
aI0
aa(lp109
I4
aI0
aI0
aI0
aa(lp110
I7
aI0
aI0
aI0
aa(lp111
I23
aI0
aI0
aI0
aa(lp112
I0
aI0
aI0
aI0
aa(lp113
I0
aI0
aI0
aI0
aa(lp114
I22
aI0
aI0
aI0
aa(lp115
I5
aI0
aI0
aI0
aa.