(lp1
(lp2
I3
aI0
aI0
aI0
aa(lp3
I0
aI0
aI0
aI0
aa(lp4
I0
aI0
aI0
aI0
aa(lp5
I24
aI0
aI0
aI0
aa(lp6
I4
aI0
aI0
aI0
aa(lp7
I13
aI0
aI0
aI0
aa(lp8
I35
aI0
aI0
aI0
aa(lp9
I13
aI0
aI0
aI0
aa(lp10
I5
aI0
aI0
aI0
aa(lp11
I4
aI0
aI0
aI0
aa(lp12
I8
aI0
aI0
aI0
aa(lp13
I96
aI0
aI0
aI0
aa(lp14
I15
aI0
aI0
aI0
aa(lp15
I8
aI0
aI0
aI0
aa(lp16
I14
aI0
aI0
aI0
aa(lp17
I0
aI0
aI0
aI0
aa(lp18
I46
aI0
aI0
aI0
aa(lp19
I3
aI0
aI0
aI0
aa(lp20
I2
aI0
aI0
aI0
aa(lp21
I14
aI0
aI0
aI0
aa(lp22
I15
aI0
aI0
aI0
aa(lp23
I32
aI0
aI0
aI0
aa(lp24
I10
aI0
aI0
aI0
aa(lp25
I9
aI0
aI0
aI0
aa(lp26
I33
aI0
aI0
aI0
aa(lp27
I0
aI0
aI0
aI0
aa(lp28
I6
aI0
aI0
aI0
aa(lp29
I34
aI0
aI0
aI0
aa(lp30
I5
aI0
aI0
aI0
aa(lp31
I13
aI0
aI0
aI0
aa(lp32
I6
aI0
aI0
aI0
aa(lp33
I6
aI0
aI0
aI0
aa(lp34
I17
aI0
aI0
aI0
aa(lp35
I14
aI0
aI0
aI0
aa(lp36
I4
aI0
aI0
aI0
aa(lp37
I23
aI0
aI0
aI0
aa(lp38
I3
aI0
aI0
aI0
aa(lp39
I5
aI0
aI0
aI0
aa(lp40
I30
aI0
aI0
aI0
aa(lp41
I18
aI0
aI0
aI0
aa(lp42
I8
aI0
aI0
aI0
aa(lp43
I10
aI0
aI0
aI0
aa(lp44
I1
aI0
aI0
aI0
aa(lp45
I3
aI0
aI0
aI0
aa(lp46
I3
aI0
aI0
aI0
aa(lp47
I55
aI0
aI0
aI0
aa(lp48
I0
aI0
aI0
aI0
aa(lp49
I29
aI0
aI0
aI0
aa(lp50
I39
aI0
aI0
aI0
aa(lp51
I12
aI0
aI0
aI0
aa(lp52
I11
aI0
aI0
aI0
aa(lp53
I0
aI0
aI0
aI0
aa(lp54
I4
aI0
aI0
aI0
aa(lp55
I0
aI0
aI0
aI0
aa(lp56
I11
aI0
aI0
aI0
aa(lp57
I14
aI0
aI0
aI0
aa(lp58
I0
aI0
aI0
aI0
aa(lp59
I13
aI0
aI0
aI0
aa(lp60
I8
aI0
aI0
aI0
aa(lp61
I7
aI0
aI0
aI0
aa(lp62
I4
aI0
aI0
aI0
aa(lp63
I15
aI0
aI0
aI0
aa(lp64
I4
aI0
aI0
aI0
aa(lp65
I28
aI0
aI0
aI0
aa(lp66
I3
aI0
aI0
aI0
aa(lp67
I5
aI0
aI0
aI0
aa(lp68
I7
aI0
aI0
aI0
aa(lp69
I3
aI0
aI0
aI0
aa(lp70
I19
aI0
aI0
aI0
aa(lp71
I11
aI0
aI0
aI0
aa(lp72
I0
aI0
aI0
aI0
aa(lp73
I16
aI0
aI0
aI0
aa(lp74
I4
aI0
aI0
aI0
aa(lp75
I0
aI0
aI0
aI0
aa(lp76
I4
aI0
aI0
aI0
aa(lp77
I15
aI0
aI0
aI0
aa(lp78
I2
aI0
aI0
aI0
aa(lp79
I3
aI0
aI0
aI0
aa(lp80
I2
aI0
aI0
aI0
aa(lp81
I12
aI0
aI0
aI0
aa(lp82
I17
aI0
aI0
aI0
aa(lp83
I6
aI0
aI0
aI0
aa(lp84
I0
aI0
aI0
aI0
aa(lp85
I18
aI0
aI0
aI0
aa(lp86
I1
aI0
aI0
aI0
aa(lp87
I0
aI0
aI0
aI0
aa(lp88
I14
aI0
aI0
aI0
aa(lp89
I16
aI0
aI0
aI0
aa(lp90
I0
aI0
aI0
aI0
aa(lp91
I0
aI0
aI0
aI0
aa(lp92
I0
aI0
aI0
aI0
aa(lp93
I3
aI0
aI0
aI0
aa(lp94
I4
aI0
aI0
aI0
aa(lp95
I0
aI0
aI0
aI0
aa(lp96
I18
aI0
aI0
aI0
aa(lp97
I17
aI0
aI0
aI0
aa(lp98
I30
aI0
aI0
aI0
aa(lp99
I27
aI0
aI0
aI0
aa(lp100
I0
aI0
aI0
aI0
aa(lp101
I8
aI0
aI0
aI0
aa(lp102
I6
aI0
aI0
aI0
aa(lp103
I3
aI0
aI0
aI0
aa(lp104
I8
aI0
aI0
aI0
aa(lp105
I10
aI0
aI0
aI0
aa(lp106
I0
aI0
aI0
aI0
aa(lp107
I44
aI0
aI0
aI0
aa(lp108
I4
aI0
aI0
aI0
aa(lp109
I1
aI0
aI0
aI0
aa(lp110
I9
aI0
aI0
aI0
aa(lp111
I0
aI0
aI0
aI0
aa(lp112
I3
aI0
aI0
aI0
aa(lp113
I14
aI0
aI0
aI0
aa(lp114
I2
aI0
aI0
aI0
aa(lp115
I0
aI0
aI0
aI0
aa(lp116
I0
aI0
aI0
aI0
aa(lp117
I0
aI0
aI0
aI0
aa(lp118
I25
aI0
aI0
aI0
aa(lp119
I8
aI0
aI0
aI0
aa(lp120
I14
aI0
aI0
aI0
aa(lp121
I0
aI0
aI0
aI0
aa(lp122
I0
aI0
aI0
aI0
aa(lp123
I4
aI0
aI0
aI0
aa(lp124
I44
aI0
aI0
aI0
aa(lp125
I11
aI0
aI0
aI0
aa(lp126
I0
aI0
aI0
aI0
aa(lp127
I16
aI0
aI0
aI0
aa(lp128
I11
aI0
aI0
aI0
aa(lp129
I0
aI0
aI0
aI0
aa.