(lp1
(lp2
I0
aI0
aI0
aI0
aa(lp3
I0
aI0
aI0
aI0
aa(lp4
I0
aI0
aI0
aI0
aa(lp5
I0
aI0
aI0
aI0
aa(lp6
I33
aI0
aI0
aI0
aa(lp7
I10
aI0
aI0
aI0
aa(lp8
I11
aI0
aI0
aI0
aa(lp9
I34
aI0
aI0
aI0
aa(lp10
I0
aI0
aI0
aI0
aa(lp11
I22
aI0
aI0
aI0
aa(lp12
I0
aI0
aI0
aI0
aa(lp13
I0
aI0
aI0
aI0
aa(lp14
I36
aI0
aI0
aI0
aa(lp15
I0
aI0
aI0
aI0
aa(lp16
I0
aI0
aI0
aI0
aa(lp17
I0
aI0
aI0
aI0
aa(lp18
I0
aI0
aI0
aI0
aa(lp19
I0
aI0
aI0
aI0
aa(lp20
I0
aI0
aI0
aI0
aa(lp21
I0
aI0
aI0
aI0
aa(lp22
I19
aI0
aI0
aI0
aa(lp23
I14
aI0
aI0
aI0
aa(lp24
I10
aI0
aI0
aI0
aa(lp25
I4
aI0
aI0
aI0
aa(lp26
I0
aI0
aI0
aI0
aa(lp27
I0
aI0
aI0
aI0
aa(lp28
I0
aI0
aI0
aI0
aa(lp29
I0
aI0
aI0
aI0
aa(lp30
I0
aI0
aI0
aI0
aa(lp31
I10
aI0
aI0
aI0
aa(lp32
I0
aI0
aI0
aI0
aa(lp33
I7
aI0
aI0
aI0
aa(lp34
I10
aI0
aI0
aI0
aa(lp35
I10
aI0
aI0
aI0
aa(lp36
I20
aI0
aI0
aI0
aa(lp37
I0
aI0
aI0
aI0
aa(lp38
I27
aI0
aI0
aI0
aa(lp39
I0
aI0
aI0
aI0
aa(lp40
I0
aI0
aI0
aI0
aa(lp41
I0
aI0
aI0
aI0
aa(lp42
I0
aI0
aI0
aI0
aa(lp43
I11
aI0
aI0
aI0
aa(lp44
I2
aI0
aI0
aI0
aa(lp45
I0
aI0
aI0
aI0
aa(lp46
I6
aI0
aI0
aI0
aa(lp47
I5
aI0
aI0
aI0
aa(lp48
I13
aI0
aI0
aI0
aa(lp49
I0
aI0
aI0
aI0
aa(lp50
I0
aI0
aI0
aI0
aa(lp51
I0
aI0
aI0
aI0
aa(lp52
I18
aI0
aI0
aI0
aa(lp53
I0
aI0
aI0
aI0
aa(lp54
I4
aI0
aI0
aI0
aa(lp55
I0
aI0
aI0
aI0
aa(lp56
I0
aI0
aI0
aI0
aa(lp57
I8
aI0
aI0
aI0
aa(lp58
I8
aI0
aI0
aI0
aa(lp59
I30
aI0
aI0
aI0
aa(lp60
I43
aI0
aI0
aI0
aa(lp61
I0
aI0
aI0
aI0
aa(lp62
I4
aI0
aI0
aI0
aa(lp63
I0
aI0
aI0
aI0
aa(lp64
I18
aI0
aI0
aI0
aa(lp65
I0
aI0
aI0
aI0
aa(lp66
I1
aI0
aI0
aI0
aa(lp67
I8
aI0
aI0
aI0
aa(lp68
I0
aI0
aI0
aI0
aa(lp69
I6
aI0
aI0
aI0
aa(lp70
I0
aI0
aI0
aI0
aa(lp71
I5
aI0
aI0
aI0
aa(lp72
I0
aI0
aI0
aI0
aa(lp73
I14
aI0
aI0
aI0
aa(lp74
I5
aI0
aI0
aI0
aa.