(lp1
(lp2
I11
aI0
aI0
aI0
aa(lp3
I4
aI0
aI0
aI0
aa(lp4
I4
aI0
aI0
aI0
aa(lp5
I16
aI0
aI0
aI0
aa(lp6
I3
aI0
aI0
aI0
aa(lp7
I25
aI0
aI0
aI0
aa(lp8
I1
aI0
aI0
aI0
aa(lp9
I5
aI0
aI0
aI0
aa(lp10
I9
aI0
aI0
aI0
aa(lp11
I1
aI0
aI0
aI0
aa(lp12
I5
aI0
aI0
aI0
aa(lp13
I3
aI0
aI0
aI0
aa(lp14
I5
aI0
aI0
aI0
aa(lp15
I2
aI0
aI0
aI0
aa(lp16
I2
aI0
aI0
aI0
aa(lp17
I50
aI0
aI0
aI0
aa(lp18
I4
aI0
aI0
aI0
aa(lp19
I3
aI0
aI0
aI0
aa(lp20
I3
aI0
aI0
aI0
aa(lp21
I2
aI0
aI0
aI0
aa(lp22
I9
aI0
aI0
aI0
aa.