(lp1
(lp2
I6
aI0
aI0
aI0
aa(lp3
I4
aI0
aI0
aI0
aa(lp4
I14
aI0
aI0
aI0
aa(lp5
I15
aI0
aI0
aI0
aa(lp6
I9
aI0
aI0
aI0
aa(lp7
I4
aI0
aI0
aI0
aa(lp8
I8
aI0
aI0
aI0
aa(lp9
I8
aI0
aI0
aI0
aa(lp10
I6
aI0
aI0
aI0
aa(lp11
I3
aI0
aI0
aI0
aa(lp12
I14
aI0
aI0
aI0
aa(lp13
I15
aI0
aI0
aI0
aa(lp14
I14
aI0
aI0
aI0
aa(lp15
I5
aI0
aI0
aI0
aa(lp16
I3
aI0
aI0
aI0
aa(lp17
I8
aI0
aI0
aI0
aa(lp18
I2
aI0
aI0
aI0
aa(lp19
I6
aI0
aI0
aI0
aa(lp20
I13
aI0
aI0
aI0
aa(lp21
I4
aI0
aI0
aI0
aa(lp22
I2
aI0
aI0
aI0
aa(lp23
I2
aI0
aI0
aI0
aa(lp24
I26
aI0
aI0
aI0
aa(lp25
I0
aI0
aI0
aI0
aa(lp26
I4
aI0
aI0
aI0
aa(lp27
I17
aI0
aI0
aI0
aa(lp28
I9
aI0
aI0
aI0
aa(lp29
I4
aI0
aI0
aI0
aa(lp30
I8
aI0
aI0
aI0
aa(lp31
I8
aI0
aI0
aI0
aa(lp32
I3
aI0
aI0
aI0
aa(lp33
I10
aI0
aI0
aI0
aa(lp34
I7
aI0
aI0
aI0
aa(lp35
I4
aI0
aI0
aI0
aa(lp36
I0
aI0
aI0
aI0
aa(lp37
I8
aI0
aI0
aI0
aa.