(lp1
(lp2
I39
aI0
aI0
aI0
aa(lp3
I11
aI0
aI0
aI0
aa(lp4
I0
aI0
aI0
aI0
aa(lp5
I7
aI0
aI0
aI0
aa(lp6
I3
aI0
aI0
aI0
aa(lp7
I0
aI0
aI0
aI0
aa(lp8
I15
aI0
aI0
aI0
aa(lp9
I0
aI0
aI0
aI0
aa(lp10
I0
aI0
aI0
aI0
aa(lp11
I5
aI0
aI0
aI0
aa(lp12
I4
aI0
aI0
aI0
aa(lp13
I0
aI0
aI0
aI0
aa(lp14
I5
aI0
aI0
aI0
aa(lp15
I12
aI0
aI0
aI0
aa(lp16
I20
aI0
aI0
aI0
aa(lp17
I11
aI0
aI0
aI0
aa(lp18
I0
aI0
aI0
aI0
aa(lp19
I0
aI0
aI0
aI0
aa(lp20
I0
aI0
aI0
aI0
aa(lp21
I0
aI0
aI0
aI0
aa(lp22
I14
aI0
aI0
aI0
aa(lp23
I0
aI0
aI0
aI0
aa(lp24
I9
aI0
aI0
aI0
aa(lp25
I2
aI0
aI0
aI0
aa(lp26
I0
aI0
aI0
aI0
aa(lp27
I17
aI0
aI0
aI0
aa(lp28
I0
aI0
aI0
aI0
aa(lp29
I5
aI0
aI0
aI0
aa(lp30
I10
aI0
aI0
aI0
aa(lp31
I5
aI0
aI0
aI0
aa(lp32
I5
aI0
aI0
aI0
aa(lp33
I17
aI0
aI0
aI0
aa(lp34
I15
aI0
aI0
aI0
aa(lp35
I9
aI0
aI0
aI0
aa(lp36
I15
aI0
aI0
aI0
aa(lp37
I9
aI0
aI0
aI0
aa(lp38
I18
aI0
aI0
aI0
aa(lp39
I0
aI0
aI0
aI0
aa(lp40
I11
aI0
aI0
aI0
aa(lp41
I13
aI0
aI0
aI0
aa(lp42
I18
aI0
aI0
aI0
aa(lp43
I18
aI0
aI0
aI0
aa(lp44
I32
aI0
aI0
aI0
aa(lp45
I0
aI0
aI0
aI0
aa(lp46
I0
aI0
aI0
aI0
aa(lp47
I16
aI0
aI0
aI0
aa(lp48
I6
aI0
aI0
aI0
aa(lp49
I27
aI0
aI0
aI0
aa(lp50
I0
aI0
aI0
aI0
aa(lp51
I0
aI0
aI0
aI0
aa(lp52
I9
aI0
aI0
aI0
aa(lp53
I4
aI0
aI0
aI0
aa(lp54
I0
aI0
aI0
aI0
aa.