(lp1
(lp2
I4
aI0
aI0
aI0
aa(lp3
I35
aI0
aI0
aI0
aa(lp4
I4
aI0
aI0
aI0
aa(lp5
I0
aI0
aI0
aI0
aa(lp6
I0
aI0
aI0
aI0
aa(lp7
I0
aI0
aI0
aI0
aa(lp8
I12
aI0
aI0
aI0
aa(lp9
I13
aI0
aI0
aI0
aa(lp10
I0
aI0
aI0
aI0
aa(lp11
I24
aI0
aI0
aI0
aa(lp12
I7
aI0
aI0
aI0
aa(lp13
I11
aI0
aI0
aI0
aa(lp14
I9
aI0
aI0
aI0
aa(lp15
I9
aI0
aI0
aI0
aa(lp16
I10
aI0
aI0
aI0
aa(lp17
I4
aI0
aI0
aI0
aa(lp18
I4
aI0
aI0
aI0
aa(lp19
I9
aI0
aI0
aI0
aa(lp20
I32
aI0
aI0
aI0
aa(lp21
I0
aI0
aI0
aI0
aa(lp22
I0
aI0
aI0
aI0
aa(lp23
I14
aI0
aI0
aI0
aa(lp24
I0
aI0
aI0
aI0
aa(lp25
I0
aI0
aI0
aI0
aa(lp26
I10
aI0
aI0
aI0
aa(lp27
I0
aI0
aI0
aI0
aa(lp28
I29
aI0
aI0
aI0
aa(lp29
I0
aI0
aI0
aI0
aa(lp30
I9
aI0
aI0
aI0
aa(lp31
I13
aI0
aI0
aI0
aa(lp32
I9
aI0
aI0
aI0
aa(lp33
I0
aI0
aI0
aI0
aa(lp34
I10
aI0
aI0
aI0
aa(lp35
I11
aI0
aI0
aI0
aa(lp36
I0
aI0
aI0
aI0
aa(lp37
I11
aI0
aI0
aI0
aa(lp38
I5
aI0
aI0
aI0
aa(lp39
I0
aI0
aI0
aI0
aa(lp40
I5
aI0
aI0
aI0
aa(lp41
I0
aI0
aI0
aI0
aa(lp42
I4
aI0
aI0
aI0
aa(lp43
I30
aI0
aI0
aI0
aa(lp44
I28
aI0
aI0
aI0
aa(lp45
I17
aI0
aI0
aI0
aa(lp46
I9
aI0
aI0
aI0
aa(lp47
I0
aI0
aI0
aI0
aa(lp48
I10
aI0
aI0
aI0
aa(lp49
I29
aI0
aI0
aI0
aa(lp50
I0
aI0
aI0
aI0
aa(lp51
I0
aI0
aI0
aI0
aa(lp52
I12
aI0
aI0
aI0
aa(lp53
I11
aI0
aI0
aI0
aa(lp54
I9
aI0
aI0
aI0
aa(lp55
I14
aI0
aI0
aI0
aa(lp56
I12
aI0
aI0
aI0
aa(lp57
I17
aI0
aI0
aI0
aa(lp58
I10
aI0
aI0
aI0
aa(lp59
I0
aI0
aI0
aI0
aa(lp60
I0
aI0
aI0
aI0
aa(lp61
I6
aI0
aI0
aI0
aa(lp62
I11
aI0
aI0
aI0
aa(lp63
I14
aI0
aI0
aI0
aa(lp64
I0
aI0
aI0
aI0
aa(lp65
I6
aI0
aI0
aI0
aa(lp66
I0
aI0
aI0
aI0
aa(lp67
I0
aI0
aI0
aI0
aa(lp68
I0
aI0
aI0
aI0
aa(lp69
I11
aI0
aI0
aI0
aa(lp70
I11
aI0
aI0
aI0
aa(lp71
I11
aI0
aI0
aI0
aa(lp72
I9
aI0
aI0
aI0
aa(lp73
I8
aI0
aI0
aI0
aa(lp74
I0
aI0
aI0
aI0
aa(lp75
I10
aI0
aI0
aI0
aa(lp76
I0
aI0
aI0
aI0
aa(lp77
I11
aI0
aI0
aI0
aa(lp78
I9
aI0
aI0
aI0
aa(lp79
I0
aI0
aI0
aI0
aa(lp80
I0
aI0
aI0
aI0
aa(lp81
I32
aI0
aI0
aI0
aa(lp82
I9
aI0
aI0
aI0
aa(lp83
I11
aI0
aI0
aI0
aa(lp84
I0
aI0
aI0
aI0
aa(lp85
I3
aI0
aI0
aI0
aa(lp86
I16
aI0
aI0
aI0
aa(lp87
I0
aI0
aI0
aI0
aa(lp88
I9
aI0
aI0
aI0
aa(lp89
I3
aI0
aI0
aI0
aa(lp90
I9
aI0
aI0
aI0
aa(lp91
I6
aI0
aI0
aI0
aa(lp92
I0
aI0
aI0
aI0
aa(lp93
I0
aI0
aI0
aI0
aa(lp94
I7
aI0
aI0
aI0
aa(lp95
I7
aI0
aI0
aI0
aa(lp96
I21
aI0
aI0
aI0
aa(lp97
I21
aI0
aI0
aI0
aa(lp98
I0
aI0
aI0
aI0
aa(lp99
I4
aI0
aI0
aI0
aa(lp100
I10
aI0
aI0
aI0
aa(lp101
I0
aI0
aI0
aI0
aa(lp102
I0
aI0
aI0
aI0
aa(lp103
I0
aI0
aI0
aI0
aa(lp104
I0
aI0
aI0
aI0
aa(lp105
I11
aI0
aI0
aI0
aa(lp106
I10
aI0
aI0
aI0
aa(lp107
I10
aI0
aI0
aI0
aa(lp108
I9
aI0
aI0
aI0
aa(lp109
I0
aI0
aI0
aI0
aa(lp110
I16
aI0
aI0
aI0
aa(lp111
I11
aI0
aI0
aI0
aa.