(lp1
(lp2
I217
aI207
aI0
aa(lp3
I313
aI303
aI0
aa(lp4
I154
aI144
aI0
aa(lp5
I241
aI231
aI0
aa(lp6
I201
aI191
aI0
aa(lp7
I279
aI269
aI0
aa(lp8
I230
aI220
aI0
aa(lp9
I359
aI349
aI0
aa(lp10
I228
aI218
aI0
aa(lp11
I305
aI295
aI0
aa(lp12
I340
aI330
aI0
aa(lp13
I184
aI174
aI0
aa(lp14
I111
aI101
aI0
aa(lp15
I226
aI216
aI0
aa(lp16
I159
aI149
aI0
aa(lp17
I151
aI141
aI0
aa(lp18
I297
aI287
aI0
aa(lp19
I386
aI376
aI0
aa(lp20
I138
aI128
aI0
aa(lp21
I240
aI230
aI0
aa.