(lp1
(lp2
I10
aI0
aI0
aI0
aa(lp3
I3
aI0
aI0
aI0
aa(lp4
I9
aI0
aI0
aI0
aa(lp5
I10
aI0
aI0
aI0
aa(lp6
I12
aI0
aI0
aI0
aa(lp7
I3
aI0
aI0
aI0
aa(lp8
I3
aI0
aI0
aI0
aa(lp9
I10
aI0
aI0
aI0
aa(lp10
I8
aI0
aI0
aI0
aa(lp11
I8
aI0
aI0
aI0
aa(lp12
I15
aI0
aI0
aI0
aa(lp13
I2
aI0
aI0
aI0
aa(lp14
I10
aI0
aI0
aI0
aa(lp15
I8
aI0
aI0
aI0
aa(lp16
I4
aI0
aI0
aI0
aa(lp17
I21
aI0
aI0
aI0
aa(lp18
I4
aI0
aI0
aI0
aa(lp19
I17
aI0
aI0
aI0
aa(lp20
I0
aI0
aI0
aI0
aa(lp21
I12
aI0
aI0
aI0
aa(lp22
I31
aI0
aI0
aI0
aa(lp23
I7
aI0
aI0
aI0
aa(lp24
I0
aI0
aI0
aI0
aa(lp25
I4
aI0
aI0
aI0
aa(lp26
I27
aI0
aI0
aI0
aa(lp27
I2
aI0
aI0
aI0
aa(lp28
I4
aI0
aI0
aI0
aa(lp29
I27
aI0
aI0
aI0
aa(lp30
I13
aI0
aI0
aI0
aa(lp31
I5
aI0
aI0
aI0
aa(lp32
I8
aI0
aI0
aI0
aa(lp33
I8
aI0
aI0
aI0
aa(lp34
I21
aI0
aI0
aI0
aa(lp35
I9
aI0
aI0
aI0
aa(lp36
I21
aI0
aI0
aI0
aa(lp37
I4
aI0
aI0
aI0
aa(lp38
I17
aI0
aI0
aI0
aa(lp39
I4
aI0
aI0
aI0
aa(lp40
I4
aI0
aI0
aI0
aa(lp41
I4
aI0
aI0
aI0
aa(lp42
I4
aI0
aI0
aI0
aa(lp43
I6
aI0
aI0
aI0
aa(lp44
I2
aI0
aI0
aI0
aa(lp45
I24
aI0
aI0
aI0
aa(lp46
I7
aI0
aI0
aI0
aa.